; Function Attrs: nounwind uwtable
define range(i64 -64, 1) i64 @ZSTD_DCtx_loadDictionary_advanced(ptr noundef captures(none) %0, ptr noundef %1, i64 noundef %2, i32 noundef %3, i32 noundef %4) local_unnamed_addr #0 {
  %6 = getelementptr inbounds nuw i8, ptr %0, i64 30236
  %7 = load i32, ptr %6, align 4, !tbaa !127
  %.not = icmp eq i32 %7, 0
  br i1 %.not, label %8, label %21

8:                                                ; preds = %5
  %9 = getelementptr inbounds nuw i8, ptr %0, i64 30184
  %10 = load ptr, ptr %9, align 8, !tbaa !3
  %11 = tail call i64 @ZSTD_freeDDict(ptr noundef %10) #17
  %12 = getelementptr inbounds nuw i8, ptr %0, i64 30208
  store i32 0, ptr %12, align 8, !tbaa !23
  tail call void @llvm.memset.p0.i64(ptr noundef nonnull align 8 dereferenceable(16) %9, i8 0, i64 16, i1 false)
  %13 = icmp ne ptr %1, null
  %14 = icmp ne i64 %2, 0
  %or.cond = and i1 %13, %14
  br i1 %or.cond, label %15, label %21

15:                                               ; preds = %8
  %16 = getelementptr inbounds nuw i8, ptr %0, i64 30128
  %17 = tail call ptr @ZSTD_createDDict_advanced(ptr noundef nonnull %1, i64 noundef %2, i32 noundef %3, i32 noundef %4, ptr noundef nonnull byval(%struct.ZSTD_customMem) align 8 %16) #17
  store ptr %17, ptr %9, align 8, !tbaa !3
  %18 = icmp eq ptr %17, null
  br i1 %18, label %21, label %19

19:                                               ; preds = %15
  %20 = getelementptr inbounds nuw i8, ptr %0, i64 30192
  store ptr %17, ptr %20, align 8, !tbaa !109
  store i32 -1, ptr %12, align 8, !tbaa !23
  br label %21

21:                                               ; preds = %8, %19, %15, %5
  %.0 = phi i64 [ -60, %5 ], [ -64, %15 ], [ 0, %19 ], [ 0, %8 ]
  ret i64 %.0
}